; Function Attrs: mustprogress nofree norecurse nosync nounwind willreturn memory(read, argmem: none, inaccessiblemem: none) uwtable
define hidden range(i32 0, 12761) i32 @_glfwGetEGLPlatformWayland(ptr noundef readnone captures(none) %0) local_unnamed_addr #5 {
  %2 = load i32, ptr getelementptr inbounds nuw (i8, ptr @_glfw, i64 133548), align 4, !tbaa !347
  %3 = icmp ne i32 %2, 0
  %4 = load i32, ptr getelementptr inbounds nuw (i8, ptr @_glfw, i64 133556), align 4
  %5 = icmp ne i32 %4, 0
  %or.cond = select i1 %3, i1 %5, i1 false
  %. = select i1 %or.cond, i32 12760, i32 0
  ret i32 %.
}